target datalayout = "e-m:e-p270:32:32-p271:32:32-p272:64:64-i64:64-i128:128-f80:128-n8:16:32:64-S128"
target triple = "x86_64-pc-linux-gnu"

%struct.type_and_structure_st = type { ptr, ptr }
%struct.evp_pkey_st = type { i32, i32, ptr, ptr, ptr, %union.legacy_pkey_st, %union.legacy_pkey_st, %struct.CRYPTO_REF_COUNT, ptr, ptr, i32, i8, %struct.crypto_ex_data_st, ptr, ptr, i64, ptr, i64, %struct.anon }
%union.legacy_pkey_st = type { ptr }
%struct.CRYPTO_REF_COUNT = type { i32 }
%struct.crypto_ex_data_st = type { ptr, ptr }
%struct.anon = type { i32, i32, i32 }
%struct.evp_pkey_asn1_method_st = type { i32, i32, i64, ptr, ptr, ptr, ptr, ptr, ptr, ptr, ptr, ptr, ptr, ptr, ptr, ptr, ptr, ptr, ptr, ptr, ptr, ptr, ptr, ptr, ptr, ptr, ptr, ptr, ptr, ptr, ptr, ptr, ptr, ptr, ptr, ptr, ptr, ptr, ptr, ptr, ptr }

@.str.2 = private unnamed_addr constant [33 x i8] c"../openssl/crypto/asn1/i2d_evp.c\00", align 1
@i2d_PrivateKey.output_info = internal constant [3 x %struct.type_and_structure_st] [%struct.type_and_structure_st { ptr @.str, ptr @.str.1 }, %struct.type_and_structure_st { ptr @.str, ptr @.str.3 }, %struct.type_and_structure_st zeroinitializer], align 16
@__func__.i2d_PrivateKey = private unnamed_addr constant [15 x i8] c"i2d_PrivateKey\00", align 1

; Function Attrs: nounwind uwtable
define i32 @i2d_PrivateKey(ptr noundef %0, ptr noundef %1) #0 {
  %3 = alloca i32, align 4
  %4 = alloca ptr, align 8
  %5 = alloca ptr, align 8
  %6 = alloca ptr, align 8
  %7 = alloca i32, align 4
  store ptr %0, ptr %4, align 8, !tbaa !3
  store ptr %1, ptr %5, align 8, !tbaa !8
  %8 = load ptr, ptr %4, align 8, !tbaa !3
  %9 = getelementptr inbounds nuw %struct.evp_pkey_st, ptr %8, i32 0, i32 13
  %10 = load ptr, ptr %9, align 8, !tbaa !10
  %11 = icmp ne ptr %10, null
  br i1 %11, label %12, label %16

12:                                               ; preds = %2
  %13 = load ptr, ptr %4, align 8, !tbaa !3
  %14 = load ptr, ptr %5, align 8, !tbaa !8
  %15 = call i32 @i2d_provided(ptr noundef %13, i32 noundef 135, ptr noundef @i2d_PrivateKey.output_info, ptr noundef %14)
  store i32 %15, ptr %3, align 4
  br label %62

16:                                               ; preds = %2
  %17 = load ptr, ptr %4, align 8, !tbaa !3
  %18 = getelementptr inbounds nuw %struct.evp_pkey_st, ptr %17, i32 0, i32 2
  %19 = load ptr, ptr %18, align 8, !tbaa !24
  %20 = icmp ne ptr %19, null
  br i1 %20, label %21, label %37

21:                                               ; preds = %16
  %22 = load ptr, ptr %4, align 8, !tbaa !3
  %23 = getelementptr inbounds nuw %struct.evp_pkey_st, ptr %22, i32 0, i32 2
  %24 = load ptr, ptr %23, align 8, !tbaa !24
  %25 = getelementptr inbounds nuw %struct.evp_pkey_asn1_method_st, ptr %24, i32 0, i32 25
  %26 = load ptr, ptr %25, align 8, !tbaa !42
  %27 = icmp ne ptr %26, null
  br i1 %27, label %28, label %37

28:                                               ; preds = %21
  %29 = load ptr, ptr %4, align 8, !tbaa !3
  %30 = getelementptr inbounds nuw %struct.evp_pkey_st, ptr %29, i32 0, i32 2
  %31 = load ptr, ptr %30, align 8, !tbaa !24
  %32 = getelementptr inbounds nuw %struct.evp_pkey_asn1_method_st, ptr %31, i32 0, i32 25
  %33 = load ptr, ptr %32, align 8, !tbaa !42
  %34 = load ptr, ptr %4, align 8, !tbaa !3
  %35 = load ptr, ptr %5, align 8, !tbaa !8
  %36 = call i32 %33(ptr noundef %34, ptr noundef %35)
  store i32 %36, ptr %3, align 4
  br label %62

37:                                               ; preds = %21, %16
  %38 = load ptr, ptr %4, align 8, !tbaa !3
  %39 = getelementptr inbounds nuw %struct.evp_pkey_st, ptr %38, i32 0, i32 2
  %40 = load ptr, ptr %39, align 8, !tbaa !24
  %41 = icmp ne ptr %40, null
  br i1 %41, label %42, label %61

42:                                               ; preds = %37
  %43 = load ptr, ptr %4, align 8, !tbaa !3
  %44 = getelementptr inbounds nuw %struct.evp_pkey_st, ptr %43, i32 0, i32 2
  %45 = load ptr, ptr %44, align 8, !tbaa !24
  %46 = getelementptr inbounds nuw %struct.evp_pkey_asn1_method_st, ptr %45, i32 0, i32 10
  %47 = load ptr, ptr %46, align 8, !tbaa !43
  %48 = icmp ne ptr %47, null
  br i1 %48, label %49, label %61

49:                                               ; preds = %42
  call void @llvm.lifetime.start.p0(i64 8, ptr %6) #3
  %50 = load ptr, ptr %4, align 8, !tbaa !3
  %51 = call ptr @EVP_PKEY2PKCS8(ptr noundef %50)
  store ptr %51, ptr %6, align 8, !tbaa !44
  call void @llvm.lifetime.start.p0(i64 4, ptr %7) #3
  store i32 0, ptr %7, align 4, !tbaa !28
  %52 = load ptr, ptr %6, align 8, !tbaa !44
  %53 = icmp ne ptr %52, null
  br i1 %53, label %54, label %59

54:                                               ; preds = %49
  %55 = load ptr, ptr %6, align 8, !tbaa !44
  %56 = load ptr, ptr %5, align 8, !tbaa !8
  %57 = call i32 @i2d_PKCS8_PRIV_KEY_INFO(ptr noundef %55, ptr noundef %56)
  store i32 %57, ptr %7, align 4, !tbaa !28
  %58 = load ptr, ptr %6, align 8, !tbaa !44
  call void @PKCS8_PRIV_KEY_INFO_free(ptr noundef %58)
  br label %59

59:                                               ; preds = %54, %49
  %60 = load i32, ptr %7, align 4, !tbaa !28
  store i32 %60, ptr %3, align 4
  call void @llvm.lifetime.end.p0(i64 4, ptr %7) #3
  call void @llvm.lifetime.end.p0(i64 8, ptr %6) #3
  br label %62

61:                                               ; preds = %42, %37
  call void @ERR_new()
  call void @ERR_set_debug(ptr noundef @.str.2, i32 noundef 118, ptr noundef @__func__.i2d_PrivateKey)
  call void (i32, i32, ptr, ...) @ERR_set_error(i32 noundef 13, i32 noundef 167, ptr noundef null)
  store i32 -1, ptr %3, align 4
  br label %62

62:                                               ; preds = %61, %59, %28, %12
  %63 = load i32, ptr %3, align 4
  ret i32 %63
}