; Function Attrs: nounwind uwtable
define i32 @i2d_PrivateKey(ptr noundef %0, ptr noundef %1) local_unnamed_addr #0 {
  %3 = getelementptr inbounds nuw i8, ptr %0, i64 96
  %4 = load ptr, ptr %3, align 8, !tbaa !3
  %.not = icmp eq ptr %4, null
  br i1 %.not, label %7, label %5

5:                                                ; preds = %2
  %6 = tail call fastcc i32 @i2d_provided(ptr noundef nonnull %0, i32 noundef 135, ptr noundef nonnull @i2d_PrivateKey.output_info, ptr noundef %1)
  br label %22

7:                                                ; preds = %2
  %8 = getelementptr inbounds nuw i8, ptr %0, i64 8
  %9 = load ptr, ptr %8, align 8, !tbaa !20
  %.not21 = icmp eq ptr %9, null
  br i1 %.not21, label %.thread, label %10

10:                                               ; preds = %7
  %11 = getelementptr inbounds nuw i8, ptr %9, i64 192
  %12 = load ptr, ptr %11, align 8, !tbaa !31
  %.not22 = icmp eq ptr %12, null
  br i1 %.not22, label %15, label %13

13:                                               ; preds = %10
  %14 = tail call i32 %12(ptr noundef nonnull %0, ptr noundef %1) #3
  br label %22

15:                                               ; preds = %10
  %16 = getelementptr inbounds nuw i8, ptr %9, i64 72
  %17 = load ptr, ptr %16, align 8, !tbaa !32
  %.not24 = icmp eq ptr %17, null
  br i1 %.not24, label %.thread, label %18

18:                                               ; preds = %15
  %19 = tail call ptr @EVP_PKEY2PKCS8(ptr noundef nonnull %0) #3
  %.not25 = icmp eq ptr %19, null
  br i1 %.not25, label %22, label %20

20:                                               ; preds = %18
  %21 = tail call i32 @i2d_PKCS8_PRIV_KEY_INFO(ptr noundef nonnull %19, ptr noundef %1) #3
  tail call void @PKCS8_PRIV_KEY_INFO_free(ptr noundef nonnull %19) #3
  br label %22

.thread:                                          ; preds = %7, %15
  tail call void @ERR_new() #3
  tail call void @ERR_set_debug(ptr noundef nonnull @.str.2, i32 noundef 118, ptr noundef nonnull @__func__.i2d_PrivateKey) #3
  tail call void (i32, i32, ptr, ...) @ERR_set_error(i32 noundef 13, i32 noundef 167, ptr noundef null) #3
  br label %22

22:                                               ; preds = %18, %20, %.thread, %13, %5
  %.016 = phi i32 [ %6, %5 ], [ %14, %13 ], [ -1, %.thread ], [ %21, %20 ], [ 0, %18 ]
  ret i32 %.016
}